Microchip MPLAB XC8 Compiler V1.45 ()

Linker command line:

-W-3 --edf=C:\Program Files (x86)\Microchip\xc8\v1.45\dat\en_msgs.txt -cs \
  -h+dist/Release/production\MRF89XA_Switch.X.production.sym \
  --cmf=dist/Release/production\MRF89XA_Switch.X.production.cmf -z \
  -Q16LF18323 -oe:\Temp\s3bs.2 \
  -Mdist/Release/production/MRF89XA_Switch.X.production.map -E1 -ver=XC8 \
  -ASTACK=02043h-020efh -pstack=STACK -ACODE=00h-07FFh -ASTRCODE=00h-07FFh \
  -ASTRING=00h-0FFhx8 -ACONST=00h-0FFhx8 -AENTRY=00h-0FFhx8 \
  -ACOMMON=070h-07Fh -ABANK0=020h-06Fh -ABANK1=0A0h-0EFh \
  -ABANK2=0120h-016Fh -ABIGRAM=02000h-020EFh \
  -ARAM=020h-06Fh,0A0h-0EFh,0120h-016Fh \
  -AABS1=020h-07Fh,0A0h-0EFh,0120h-016Fh -ASFR0=00h-01Fh -ASFR1=080h-09Fh \
  -ASFR2=0100h-011Fh -ASFR3=0180h-01EFh -ASFR4=0200h-026Fh \
  -ASFR5=0280h-02EFh -ASFR6=0300h-036Fh -ASFR7=0380h-03EFh \
  -ASFR8=0400h-046Fh -ASFR9=0480h-04EFh -ASFR10=0500h-056Fh \
  -ASFR11=0580h-05EFh -ASFR12=0600h-066Fh -ASFR13=0680h-06EFh \
  -ASFR14=0700h-076Fh -ASFR15=0780h-07EFh -ASFR16=0800h-086Fh \
  -ASFR17=0880h-08EFh -ASFR18=0900h-096Fh -ASFR19=0980h-09EFh \
  -ASFR20=0A00h-0A6Fh -ASFR21=0A80h-0AEFh -ASFR22=0B00h-0B6Fh \
  -ASFR23=0B80h-0BEFh -ASFR24=0C00h-0C6Fh -ASFR25=0C80h-0CEFh \
  -ASFR26=0D00h-0D6Fh -ASFR27=0D80h-0DEFh -ASFR28=0E00h-0E6Fh \
  -ASFR29=0E80h-0EEFh -ASFR30=0F00h-0F6Fh -ASFR31=0F80h-0FEFh \
  -preset_vec=00h,intentry,init,end_init -ppowerup=CODE -pcinit=CODE \
  -pfunctab=ENTRY -ACONFIG=08007h-0800Ah -pconfig=CONFIG -DCONFIG=2 \
  -AIDLOC=08000h-08003h -pidloc=IDLOC -DIDLOC=2 -AEEDATA=00h-0FFh/0F000h \
  -peeprom_data=EEDATA -DEEDATA=2 -DCODE=2 -DSTRCODE=2 -DSTRING=2 -DCONST=2 \
  -DENTRY=2 -k e:\Temp\s3bs.obj \
  dist/Release/production\MRF89XA_Switch.X.production.obj 

Object code version is 3.11

Machine type is 16LF18323



                Name                               Link     Load   Length Selector   Space Scale
e:\Temp\s3bs.obj
                end_init                              1        1        1        0       0
                reset_vec                             0        0        1        0       0
                config                             8007     8007        4    1000E       0
dist/Release/production\MRF89XA_Switch.X.production.obj
                cinit                               7FE      7FE        2      FFC       0
                text18                              5AD      5AD       1D      B5A       0
                text17                              562      562        D      AC4       0
                text16                              56F      56F        D      ADE       0
                text15                              57C      57C        D      AF8       0
                text14                              557      557        B      AAE       0
                text13                              589      589       11      B12       0
                text12                              697      697       34      D2E       0
                text11                              665      665       32      CCA       0
                text10                              6CB      6CB       40      D96       0
                text9                               544      544        9      A88       0
                text8                               534      534        8      A68       0
                text7                               60A      60A       2D      C14       0
                text6                               70B      70B       50      E16       0
                text5                               5CA      5CA       20      B94       0
                text4                               53C      53C        8      A78       0
                text3                               59A      59A       13      B34       0
                text2                               75B      75B       A3      EB6       0
                text1                               637      637       2E      C6E       0
                maintext                            54D      54D        A      A9A       0
                cstackCOMMON                         70       70        A       70       1
                bssBANK0                             20       20       43       20       1
                bssCOMMON                            7A       7A        4       70       1
                stringtext2                         52F      52F        5      A5E       0
                stringtext1                         5EA      5EA       20      BD4       0

TOTAL           Name                               Link     Load   Length     Space
        CLASS   STACK          

        CLASS   CODE           
                end_init                              1        1        1         0
                cinit                               7FE      7FE        2         0
                reset_vec                             0        0        1         0
                text18                              5AD      5AD       1D         0
                text17                              562      562        D         0
                text16                              56F      56F        D         0
                text15                              57C      57C        D         0
                text14                              557      557        B         0
                text13                              589      589       11         0
                text12                              697      697       34         0
                text11                              665      665       32         0
                text10                              6CB      6CB       40         0
                text9                               544      544        9         0
                text8                               534      534        8         0
                text7                               60A      60A       2D         0
                text6                               70B      70B       50         0
                text5                               5CA      5CA       20         0
                text4                               53C      53C        8         0
                text3                               59A      59A       13         0
                text2                               75B      75B       A3         0
                text1                               637      637       2E         0
                maintext                            54D      54D        A         0

        CLASS   STRCODE        
                stringtext2                         52F      52F        5         0
                stringtext1                         5EA      5EA       20         0

        CLASS   STRING         

        CLASS   CONST          

        CLASS   ENTRY          

        CLASS   COMMON         
                cstackCOMMON                         70       70        A         1
                bssCOMMON                            7A       7A        4         1

        CLASS   BANK0          
                bssBANK0                             20       20       43         1

        CLASS   BANK1          

        CLASS   BANK2          

        CLASS   BIGRAM         

        CLASS   RAM            

        CLASS   ABS1           
                abs_s1                               7E       7E        2         1

        CLASS   SFR0           

        CLASS   SFR1           

        CLASS   SFR2           

        CLASS   SFR3           

        CLASS   SFR4           

        CLASS   SFR5           

        CLASS   SFR6           

        CLASS   SFR7           

        CLASS   SFR8           

        CLASS   SFR9           

        CLASS   SFR10          

        CLASS   SFR11          

        CLASS   SFR12          

        CLASS   SFR13          

        CLASS   SFR14          

        CLASS   SFR15          

        CLASS   SFR16          

        CLASS   SFR17          

        CLASS   SFR18          

        CLASS   SFR19          

        CLASS   SFR20          

        CLASS   SFR21          

        CLASS   SFR22          

        CLASS   SFR23          

        CLASS   SFR24          

        CLASS   SFR25          

        CLASS   SFR26          

        CLASS   SFR27          

        CLASS   SFR28          

        CLASS   SFR29          

        CLASS   SFR30          

        CLASS   SFR31          

        CLASS   CONFIG         
                config                             8007     8007        4         0

        CLASS   IDLOC          

        CLASS   EEDATA         

        CLASS   BANK31         

        CLASS   BANK30         

        CLASS   BANK29         

        CLASS   BANK28         

        CLASS   BANK27         

        CLASS   BANK26         

        CLASS   BANK25         

        CLASS   BANK24         

        CLASS   BANK23         

        CLASS   BANK22         

        CLASS   BANK21         

        CLASS   BANK20         

        CLASS   BANK19         

        CLASS   BANK18         

        CLASS   BANK17         

        CLASS   BANK16         

        CLASS   BANK15         

        CLASS   BANK14         

        CLASS   BANK13         

        CLASS   BANK12         

        CLASS   BANK11         

        CLASS   BANK10         

        CLASS   BANK9          

        CLASS   BANK8          

        CLASS   BANK7          

        CLASS   BANK6          

        CLASS   BANK5          

        CLASS   BANK4          

        CLASS   BANK3          



SEGMENTS        Name                           Load    Length   Top    Selector   Space  Class     Delta

                reset_vec                      000000  000002  000002         0       0  CODE        2
                bssBANK0                       000020  000043  000063        20       1  BANK0       1
                cstackCOMMON                   000070  00000E  00007E        70       1  COMMON      1
                stringtext2                    00052F  000005  000534       A5E       0  STRCODE     2
                text8                          000534  000008  00053C       A68       0  CODE        2
                text4                          00053C  000008  000544       A78       0  CODE        2
                text9                          000544  000009  00054D       A88       0  CODE        2
                maintext                       00054D  00000A  000557       A9A       0  CODE        2
                text14                         000557  00000B  000562       AAE       0  CODE        2
                text17                         000562  00000D  00056F       AC4       0  CODE        2
                text16                         00056F  00000D  00057C       ADE       0  CODE        2
                text15                         00057C  00000D  000589       AF8       0  CODE        2
                text13                         000589  000011  00059A       B12       0  CODE        2
                text3                          00059A  000013  0005AD       B34       0  CODE        2
                text18                         0005AD  00001D  0005CA       B5A       0  CODE        2
                text5                          0005CA  000020  0005EA       B94       0  CODE        2
                stringtext1                    0005EA  000020  00060A       BD4       0  STRCODE     2
                text7                          00060A  00002D  000637       C14       0  CODE        2
                text1                          000637  00002E  000665       C6E       0  CODE        2
                text11                         000665  000032  000697       CCA       0  CODE        2
                text12                         000697  000034  0006CB       D2E       0  CODE        2
                text10                         0006CB  000040  00070B       D96       0  CODE        2
                text6                          00070B  000050  00075B       E16       0  CODE        2
                text2                          00075B  0000A3  0007FE       EB6       0  CODE        2
                cinit                          0007FE  000002  000800       FFC       0  CODE        2
                config                         008007  000004  00800B     1000E       0  CONFIG      2


UNUSED ADDRESS RANGES

        Name                Unused          Largest block    Delta
        BANK0            00063-0006F               D           1
        BANK1            000A0-000EF              50           1
        BANK2            00120-0016F              50           1
        BIGRAM           02000-020EF              F0           1
        CODE             00002-0052E             52D           2
        CONST            00002-0052E             100           2
        EEDATA           0F000-0F0FF             100           2
        ENTRY            00002-0052E             100           2
        IDLOC            08000-08003               4           2
        RAM              00063-0006F               D           1
                         000A0-000EF              50
                         00120-0016F              50
        SFR0             00000-0001F              20           1
        SFR1             00080-0009F              20           1
        SFR10            00500-0056F              70           1
        SFR11            00580-005EF              70           1
        SFR12            00600-0066F              70           1
        SFR13            00680-006EF              70           1
        SFR14            00700-0076F              70           1
        SFR15            00780-007EF              70           1
        SFR16            00800-0086F              70           1
        SFR17            00880-008EF              70           1
        SFR18            00900-0096F              70           1
        SFR19            00980-009EF              70           1
        SFR2             00100-0011F              20           1
        SFR20            00A00-00A6F              70           1
        SFR21            00A80-00AEF              70           1
        SFR22            00B00-00B6F              70           1
        SFR23            00B80-00BEF              70           1
        SFR24            00C00-00C6F              70           1
        SFR25            00C80-00CEF              70           1
        SFR26            00D00-00D6F              70           1
        SFR27            00D80-00DEF              70           1
        SFR28            00E00-00E6F              70           1
        SFR29            00E80-00EEF              70           1
        SFR3             00180-001EF              70           1
        SFR30            00F00-00F6F              70           1
        SFR31            00F80-00FEF              70           1
        SFR4             00200-0026F              70           1
        SFR5             00280-002EF              70           1
        SFR6             00300-0036F              70           1
        SFR7             00380-003EF              70           1
        SFR8             00400-0046F              70           1
        SFR9             00480-004EF              70           1
        STACK            02043-020EF              AD           1
        STRCODE          00002-0052E             52D           2
        STRING           00002-0052E             100           2

                                  Symbol Table

?___awdiv                      cstackCOMMON 00070
Comm_Transmit@input            cstackCOMMON 00079
Comm_Transmit@val              cstackCOMMON 00078
MRF89XAInit@i                  cstackCOMMON 00078
MRF89XAInit@input              cstackCOMMON 00077
MRF89XAInit@res                cstackCOMMON 00076
MRF89XARegisterRead@address    cstackCOMMON 00073
MRF89XARegisterRead@value      cstackCOMMON 00072
MRF89XARegisterSet@address     cstackCOMMON 00073
MRF89XARegisterSet@value       cstackCOMMON 00072
MRF89XASendFrame@i             cstackCOMMON 00076
MRF89XASetRFMode@mcparam0_read cstackCOMMON 00075
MRF89XASetRFMode@mode          cstackCOMMON 00074
SPI_HF_Get@spidata             cstackCOMMON 00070
SPI_HF_Put@i                   cstackCOMMON 00071
SPI_HF_Put@v                   cstackCOMMON 00070
WriteFIFO@Data                 cstackCOMMON 00072
_ADACT                         (abs)        0009F
_ADCMD                         (abs)        0489D
_ADCON0                        (abs)        0009D
_ADCON0bits                    (abs)        0009D
_ADCON1                        (abs)        0009E
_ADRESH                        (abs)        0009C
_ANSELA                        (abs)        0018C
_ANSELC                        (abs)        0018E
_CalcUbat                      text9        00544
_Clock_Init                    text18       005AD
_ComData                       bssCOMMON    0007A
_Comm_Init                     text11       00665
_Comm_Transmit                 text6        0070B
_ConvBat                       text5        005CA
_FVRCON                        (abs)        00117
_FVRMD                         (abs)        0488E
_IDLEN                         (abs)        048C7
_INTCON                        (abs)        0000B
_INTCONbits                    (abs)        0000B
_INTPPS                        (abs)        00E10
_IOCAF                         (abs)        00393
_IOCAN5                        (abs)        01C95
_IOCIE                         (abs)        00484
_IOCIF                         (abs)        00084
_InitConfigRegs                stringtext1  005EA
_LATA                          (abs)        0010C
_LATAbits                      (abs)        0010C
_LATC                          (abs)        0010E
_LATCbits                      (abs)        0010E
_MRF89XAInit                   text12       00697
_MRF89XARegisterRead           text15       0057C
_MRF89XARegisterSet            text14       00557
_MRF89XASendFrame              text7        0060A
_MRF89XASetRFMode              text13       00589
_MSSP1MD                       (abs)        048A9
_MainLoop                      text2        0075B
_OSCCON1                       (abs)        00919
_OSCCON3                       (abs)        0091B
_OSCFRQ                        (abs)        0091F
_PIE0                          (abs)        00090
_PIE1                          (abs)        00091
_PIE2                          (abs)        00092
_PIE3                          (abs)        00093
_PIE4                          (abs)        00094
_PIR0bits                      (abs)        00010
_PMD0                          (abs)        00911
_PMD1                          (abs)        00912
_PMD2                          (abs)        00913
_PMD3                          (abs)        00914
_PMD4                          (abs)        00915
_PMD5                          (abs)        00916
_PORTAbits                     (abs)        0000C
_Ports_Init                    text1        00637
_RC0PPS                        (abs)        00EA0
_RC2PPS                        (abs)        00EA2
_ROM_NWID                      stringtext2  0052F
_SPI_HF_Deinit                 text4        0053C
_SPI_HF_Get                    text17       00562
_SPI_HF_Init                   text3        0059A
_SPI_HF_Put                    text16       0056F
_SSP1BUF                       (abs)        00211
_SSP1CLKPPS                    (abs)        00E20
_SSP1CON1                      (abs)        00215
_SSP1CON1bits                  (abs)        00215
_SSP1CON2                      (abs)        00216
_SSP1CON3                      (abs)        00217
_SSP1DATPPS                    (abs)        00E21
_SSP1IE                        (abs)        0048B
_SSP1IF                        (abs)        0008B
_SSP1STAT                      (abs)        00214
_SWDTEN                        (abs)        004B8
_SWSstate                      bssCOMMON    0007B
_SYSCMD                        (abs)        0488F
_TRISA                         (abs)        0008C
_TRISC                         (abs)        0008E
_TRISCbits                     (abs)        0008E
_TxPacket                      bssBANK0     00020
_Voltage                       bssCOMMON    0007C
_WDTCON                        (abs)        00097
_WPUA                          (abs)        0020C
_WPUC                          (abs)        0020E
_WSDeb                         bssBANK0     00062
_WSOpenTime                    bssBANK0     00060
_WriteFIFO                     text8        00534
__CFG_BOREN$OFF                (abs)        00000
__CFG_BORV$LOW                 (abs)        00000
__CFG_CLKOUTEN$OFF             (abs)        00000
__CFG_CP$OFF                   (abs)        00000
__CFG_CPD$OFF                  (abs)        00000
__CFG_CSWEN$ON                 (abs)        00000
__CFG_FCMEN$OFF                (abs)        00000
__CFG_FEXTOSC$OFF              (abs)        00000
__CFG_LPBOREN$ON               (abs)        00000
__CFG_LVP$ON                   (abs)        00000
__CFG_MCLRE$ON                 (abs)        00000
__CFG_PPS1WAY$OFF              (abs)        00000
__CFG_PWRTE$OFF                (abs)        00000
__CFG_RSTOSC$LFINT             (abs)        00000
__CFG_STVREN$ON                (abs)        00000
__CFG_WDTE$SWDTEN              (abs)        00000
__CFG_WRT$OFF                  (abs)        00000
__Habs1                        abs1         00000
__Hbank0                       bank0        00000
__Hbank1                       bank1        00000
__Hbank10                      bank10       00000
__Hbank11                      bank11       00000
__Hbank12                      bank12       00000
__Hbank13                      bank13       00000
__Hbank14                      bank14       00000
__Hbank15                      bank15       00000
__Hbank16                      bank16       00000
__Hbank17                      bank17       00000
__Hbank18                      bank18       00000
__Hbank19                      bank19       00000
__Hbank2                       bank2        00000
__Hbank20                      bank20       00000
__Hbank21                      bank21       00000
__Hbank22                      bank22       00000
__Hbank23                      bank23       00000
__Hbank24                      bank24       00000
__Hbank25                      bank25       00000
__Hbank26                      bank26       00000
__Hbank27                      bank27       00000
__Hbank28                      bank28       00000
__Hbank29                      bank29       00000
__Hbank3                       bank3        00000
__Hbank30                      bank30       00000
__Hbank31                      bank31       00000
__Hbank4                       bank4        00000
__Hbank5                       bank5        00000
__Hbank6                       bank6        00000
__Hbank7                       bank7        00000
__Hbank8                       bank8        00000
__Hbank9                       bank9        00000
__Hbigram                      bigram       00000
__HbssBANK0                    bssBANK0     00000
__HbssCOMMON                   bssCOMMON    00000
__Hcinit                       cinit        00800
__Hclrtext                     clrtext      00000
__Hcode                        code         00000
__Hcommon                      common       00000
__Hconfig                      config       0800B
__HcstackCOMMON                cstackCOMMON 00000
__Heeprom_data                 eeprom_data  00000
__Hend_init                    end_init     00002
__Hfunctab                     functab      00000
__Hidloc                       idloc        00000
__Hinit                        init         00001
__Hintentry                    intentry     00001
__Hmaintext                    maintext     00000
__Hpa_nodes0                   pa_nodes0    00000
__Hpowerup                     powerup      00000
__Hram                         ram          00000
__Hreset_vec                   reset_vec    00001
__Hsfr0                        sfr0         00000
__Hsfr1                        sfr1         00000
__Hsfr10                       sfr10        00000
__Hsfr11                       sfr11        00000
__Hsfr12                       sfr12        00000
__Hsfr13                       sfr13        00000
__Hsfr14                       sfr14        00000
__Hsfr15                       sfr15        00000
__Hsfr16                       sfr16        00000
__Hsfr17                       sfr17        00000
__Hsfr18                       sfr18        00000
__Hsfr19                       sfr19        00000
__Hsfr2                        sfr2         00000
__Hsfr20                       sfr20        00000
__Hsfr21                       sfr21        00000
__Hsfr22                       sfr22        00000
__Hsfr23                       sfr23        00000
__Hsfr24                       sfr24        00000
__Hsfr25                       sfr25        00000
__Hsfr26                       sfr26        00000
__Hsfr27                       sfr27        00000
__Hsfr28                       sfr28        00000
__Hsfr29                       sfr29        00000
__Hsfr3                        sfr3         00000
__Hsfr30                       sfr30        00000
__Hsfr31                       sfr31        00000
__Hsfr4                        sfr4         00000
__Hsfr5                        sfr5         00000
__Hsfr6                        sfr6         00000
__Hsfr7                        sfr7         00000
__Hsfr8                        sfr8         00000
__Hsfr9                        sfr9         00000
__Hspace_0                     (abs)        0800B
__Hspace_1                     (abs)        0007E
__Hspace_2                     (abs)        00000
__Hspace_3                     (abs)        00000
__Hstack                       stack        00000
__Hstrings                     strings      00000
__Hstringtext1                 stringtext1  00000
__Hstringtext2                 stringtext2  00000
__Htext                        text         00000
__Labs1                        abs1         00000
__Lbank0                       bank0        00000
__Lbank1                       bank1        00000
__Lbank10                      bank10       00000
__Lbank11                      bank11       00000
__Lbank12                      bank12       00000
__Lbank13                      bank13       00000
__Lbank14                      bank14       00000
__Lbank15                      bank15       00000
__Lbank16                      bank16       00000
__Lbank17                      bank17       00000
__Lbank18                      bank18       00000
__Lbank19                      bank19       00000
__Lbank2                       bank2        00000
__Lbank20                      bank20       00000
__Lbank21                      bank21       00000
__Lbank22                      bank22       00000
__Lbank23                      bank23       00000
__Lbank24                      bank24       00000
__Lbank25                      bank25       00000
__Lbank26                      bank26       00000
__Lbank27                      bank27       00000
__Lbank28                      bank28       00000
__Lbank29                      bank29       00000
__Lbank3                       bank3        00000
__Lbank30                      bank30       00000
__Lbank31                      bank31       00000
__Lbank4                       bank4        00000
__Lbank5                       bank5        00000
__Lbank6                       bank6        00000
__Lbank7                       bank7        00000
__Lbank8                       bank8        00000
__Lbank9                       bank9        00000
__Lbigram                      bigram       00000
__LbssBANK0                    bssBANK0     00000
__LbssCOMMON                   bssCOMMON    00000
__Lcinit                       cinit        007FE
__Lclrtext                     clrtext      00000
__Lcode                        code         00000
__Lcommon                      common       00000
__Lconfig                      config       08007
__LcstackCOMMON                cstackCOMMON 00000
__Leeprom_data                 eeprom_data  00000
__Lend_init                    end_init     00001
__Lfunctab                     functab      00000
__Lidloc                       idloc        00000
__Linit                        init         00001
__Lintentry                    intentry     00001
__Lmaintext                    maintext     00000
__Lpa_nodes0                   pa_nodes0    00000
__Lpowerup                     powerup      00000
__Lram                         ram          00000
__Lreset_vec                   reset_vec    00000
__Lsfr0                        sfr0         00000
__Lsfr1                        sfr1         00000
__Lsfr10                       sfr10        00000
__Lsfr11                       sfr11        00000
__Lsfr12                       sfr12        00000
__Lsfr13                       sfr13        00000
__Lsfr14                       sfr14        00000
__Lsfr15                       sfr15        00000
__Lsfr16                       sfr16        00000
__Lsfr17                       sfr17        00000
__Lsfr18                       sfr18        00000
__Lsfr19                       sfr19        00000
__Lsfr2                        sfr2         00000
__Lsfr20                       sfr20        00000
__Lsfr21                       sfr21        00000
__Lsfr22                       sfr22        00000
__Lsfr23                       sfr23        00000
__Lsfr24                       sfr24        00000
__Lsfr25                       sfr25        00000
__Lsfr26                       sfr26        00000
__Lsfr27                       sfr27        00000
__Lsfr28                       sfr28        00000
__Lsfr29                       sfr29        00000
__Lsfr3                        sfr3         00000
__Lsfr30                       sfr30        00000
__Lsfr31                       sfr31        00000
__Lsfr4                        sfr4         00000
__Lsfr5                        sfr5         00000
__Lsfr6                        sfr6         00000
__Lsfr7                        sfr7         00000
__Lsfr8                        sfr8         00000
__Lsfr9                        sfr9         00000
__Lspace_0                     (abs)        00000
__Lspace_1                     (abs)        00000
__Lspace_2                     (abs)        00000
__Lspace_3                     (abs)        00000
__Lstack                       stack        00000
__Lstrings                     strings      00000
__Lstringtext1                 stringtext1  00000
__Lstringtext2                 stringtext2  00000
__Ltext                        text         00000
__S0                           (abs)        0800B
__S1                           (abs)        0007E
__S2                           (abs)        00000
__S3                           (abs)        00000
___awdiv                       text10       006CB
___awdiv@counter               cstackCOMMON 00074
___awdiv@dividend              cstackCOMMON 00072
___awdiv@divisor               cstackCOMMON 00070
___awdiv@quotient              cstackCOMMON 00076
___awdiv@sign                  cstackCOMMON 00075
___int_sp                      stack        00000
___latbits                     (abs)        00000
___sp                          stack        00000
__end_of_CalcUbat              text9        0054D
__end_of_Clock_Init            text18       005CA
__end_of_Comm_Init             text11       00697
__end_of_Comm_Transmit         text6        0075B
__end_of_ConvBat               text5        005EA
__end_of_InitConfigRegs        stringtext1  0060A
__end_of_MRF89XAInit           text12       006CB
__end_of_MRF89XARegisterRead   text15       00589
__end_of_MRF89XARegisterSet    text14       00562
__end_of_MRF89XASendFrame      text7        00637
__end_of_MRF89XASetRFMode      text13       0059A
__end_of_MainLoop              text2        007FE
__end_of_Ports_Init            text1        00665
__end_of_ROM_NWID              stringtext2  00534
__end_of_SPI_HF_Deinit         text4        00544
__end_of_SPI_HF_Get            text17       0056F
__end_of_SPI_HF_Init           text3        005AD
__end_of_SPI_HF_Put            text16       0057C
__end_of_WriteFIFO             text8        0053C
__end_of___awdiv               text10       0070B
__end_of__initialization       cinit        007FE
__end_of_main                  maintext     00557
__initialization               cinit        007FE
__pbssBANK0                    bssBANK0     00020
__pbssCOMMON                   bssCOMMON    0007A
__pcstackCOMMON                cstackCOMMON 00070
__pmaintext                    maintext     0054D
__pstringtext1                 stringtext1  005EA
__pstringtext2                 stringtext2  0052F
__ptext1                       text1        00637
__ptext10                      text10       006CB
__ptext11                      text11       00665
__ptext12                      text12       00697
__ptext13                      text13       00589
__ptext14                      text14       00557
__ptext15                      text15       0057C
__ptext16                      text16       0056F
__ptext17                      text17       00562
__ptext18                      text18       005AD
__ptext2                       text2        0075B
__ptext3                       text3        0059A
__ptext4                       text4        0053C
__ptext5                       text5        005CA
__ptext6                       text6        0070B
__ptext7                       text7        0060A
__ptext8                       text8        00534
__ptext9                       text9        00544
__size_of_CalcUbat             (abs)        00000
__size_of_Clock_Init           (abs)        00000
__size_of_Comm_Init            (abs)        00000
__size_of_Comm_Transmit        (abs)        00000
__size_of_ConvBat              (abs)        00000
__size_of_MRF89XAInit          (abs)        00000
__size_of_MRF89XARegisterRead  (abs)        00000
__size_of_MRF89XARegisterSet   (abs)        00000
__size_of_MRF89XASendFrame     (abs)        00000
__size_of_MRF89XASetRFMode     (abs)        00000
__size_of_MainLoop             (abs)        00000
__size_of_Ports_Init           (abs)        00000
__size_of_SPI_HF_Deinit        (abs)        00000
__size_of_SPI_HF_Get           (abs)        00000
__size_of_SPI_HF_Init          (abs)        00000
__size_of_SPI_HF_Put           (abs)        00000
__size_of_WriteFIFO            (abs)        00000
__size_of___awdiv              (abs)        00000
__size_of_main                 (abs)        00000
_main                          maintext     0054D
_temp                          bssCOMMON    0007D
btemp                          (abs)        0007E
end_of_initialization          cinit        007FE
intlevel0                      functab      00000
intlevel1                      functab      00000
intlevel2                      functab      00000
intlevel3                      functab      00000
intlevel4                      functab      00000
intlevel5                      functab      00000
reset_vec                      reset_vec    00000
stackhi                        (abs)        020EF
stacklo                        (abs)        02043
start                          init         00001
start_initialization           cinit        007FE
wtemp0                         (abs)        0007E


FUNCTION INFORMATION:

 *************** function _main *****************
 Defined at:
		line 349 in file "../main.c"
 Parameters:    Size  Location     Type
		None
 Auto vars:     Size  Location     Type
		None
 Return value:  Size  Location     Type
                  2  158[None  ] int 
 Registers used:
		wreg, fsr0l, fsr0h, fsr1l, fsr1h, status,2, status,0, pclath, cstack
 Tracked objects:
		On entry : 
		On exit  : 
		Unchanged: 
 Data sizes:     COMMON   BANK0   BANK1   BANK2
      Params:         0       0       0       0
      Locals:         0       0       0       0
      Temps:          0       0       0       0
      Totals:         0       0       0       0
Total ram usage:        0 bytes
 Hardware stack levels required when called:    6
 This function calls:
		_Clock_Init
		_Comm_Init
		_MainLoop
		_Ports_Init
		_SPI_HF_Init
 This function is called by:
		Startup code after reset
 This function uses a non-reentrant model


 *************** function _Ports_Init *****************
 Defined at:
		line 94 in file "../main.c"
 Parameters:    Size  Location     Type
		None
 Auto vars:     Size  Location     Type
		None
 Return value:  Size  Location     Type
                  1    wreg      void 
 Registers used:
		wreg, status,2, status,0
 Tracked objects:
		On entry : 
		On exit  : 
		Unchanged: 
 Data sizes:     COMMON   BANK0   BANK1   BANK2
      Params:         0       0       0       0
      Locals:         0       0       0       0
      Temps:          0       0       0       0
      Totals:         0       0       0       0
Total ram usage:        0 bytes
 Hardware stack levels used:    1
 This function calls:
		Nothing
 This function is called by:
		_main
 This function uses a non-reentrant model


 *************** function _MainLoop *****************
 Defined at:
		line 231 in file "../main.c"
 Parameters:    Size  Location     Type
		None
 Auto vars:     Size  Location     Type
		None
 Return value:  Size  Location     Type
                  1    wreg      void 
 Registers used:
		wreg, fsr0l, fsr0h, fsr1l, fsr1h, status,2, status,0, pclath, cstack
 Tracked objects:
		On entry : 
		On exit  : 
		Unchanged: 
 Data sizes:     COMMON   BANK0   BANK1   BANK2
      Params:         0       0       0       0
      Locals:         0       0       0       0
      Temps:          0       0       0       0
      Totals:         0       0       0       0
Total ram usage:        0 bytes
 Hardware stack levels used:    1
 Hardware stack levels required when called:    5
 This function calls:
		_Comm_Transmit
		_ConvBat
		_SPI_HF_Deinit
		_SPI_HF_Init
 This function is called by:
		_main
 This function uses a non-reentrant model


 *************** function _SPI_HF_Init *****************
 Defined at:
		line 6 in file "../drv_spi.c"
 Parameters:    Size  Location     Type
		None
 Auto vars:     Size  Location     Type
		None
 Return value:  Size  Location     Type
                  1    wreg      void 
 Registers used:
		wreg, status,2
 Tracked objects:
		On entry : 
		On exit  : 
		Unchanged: 
 Data sizes:     COMMON   BANK0   BANK1   BANK2
      Params:         0       0       0       0
      Locals:         0       0       0       0
      Temps:          0       0       0       0
      Totals:         0       0       0       0
Total ram usage:        0 bytes
 Hardware stack levels used:    1
 This function calls:
		Nothing
 This function is called by:
		_MainLoop
		_main
 This function uses a non-reentrant model


 *************** function _SPI_HF_Deinit *****************
 Defined at:
		line 94 in file "../drv_spi.c"
 Parameters:    Size  Location     Type
		None
 Auto vars:     Size  Location     Type
		None
 Return value:  Size  Location     Type
                  1    wreg      void 
 Registers used:
		status,2
 Tracked objects:
		On entry : 
		On exit  : 
		Unchanged: 
 Data sizes:     COMMON   BANK0   BANK1   BANK2
      Params:         0       0       0       0
      Locals:         0       0       0       0
      Temps:          0       0       0       0
      Totals:         0       0       0       0
Total ram usage:        0 bytes
 Hardware stack levels used:    1
 This function calls:
		Nothing
 This function is called by:
		_MainLoop
 This function uses a non-reentrant model


 *************** function _ConvBat *****************
 Defined at:
		line 173 in file "../main.c"
 Parameters:    Size  Location     Type
		None
 Auto vars:     Size  Location     Type
		None
 Return value:  Size  Location     Type
                  1    wreg      void 
 Registers used:
		wreg, status,2, status,0
 Tracked objects:
		On entry : 
		On exit  : 
		Unchanged: 
 Data sizes:     COMMON   BANK0   BANK1   BANK2
      Params:         0       0       0       0
      Locals:         0       0       0       0
      Temps:          0       0       0       0
      Totals:         0       0       0       0
Total ram usage:        0 bytes
 Hardware stack levels used:    1
 This function calls:
		Nothing
 This function is called by:
		_MainLoop
 This function uses a non-reentrant model


 *************** function _Comm_Transmit *****************
 Defined at:
		line 44 in file "../svc_comm.c"
 Parameters:    Size  Location     Type
  val             1    wreg     unsigned char 
 Auto vars:     Size  Location     Type
  val             1    8[COMMON] unsigned char 
  input           1    9[COMMON] unsigned char 
 Return value:  Size  Location     Type
                  1    wreg      void 
 Registers used:
		wreg, fsr0l, fsr0h, fsr1l, fsr1h, status,2, status,0, pclath, cstack
 Tracked objects:
		On entry : 
		On exit  : 
		Unchanged: 
 Data sizes:     COMMON   BANK0   BANK1   BANK2
      Params:         0       0       0       0
      Locals:         2       0       0       0
      Temps:          0       0       0       0
      Totals:         2       0       0       0
Total ram usage:        2 bytes
 Hardware stack levels used:    1
 Hardware stack levels required when called:    4
 This function calls:
		_CalcUbat
		_MRF89XARegisterRead
		_MRF89XARegisterSet
		_MRF89XASendFrame
		_MRF89XASetRFMode
 This function is called by:
		_MainLoop
 This function uses a non-reentrant model


 *************** function _MRF89XASendFrame *****************
 Defined at:
		line 199 in file "../../LIBC/MRF89_Drv/MRF89XA.c"
 Parameters:    Size  Location     Type
		None
 Auto vars:     Size  Location     Type
  i               1    6[COMMON] unsigned char 
 Return value:  Size  Location     Type
                  1    wreg      void 
 Registers used:
		wreg, fsr0l, fsr0h, fsr1l, fsr1h, status,2, status,0, pclath, cstack
 Tracked objects:
		On entry : 
		On exit  : 
		Unchanged: 
 Data sizes:     COMMON   BANK0   BANK1   BANK2
      Params:         0       0       0       0
      Locals:         1       0       0       0
      Temps:          0       0       0       0
      Totals:         1       0       0       0
Total ram usage:        1 bytes
 Hardware stack levels used:    1
 Hardware stack levels required when called:    3
 This function calls:
		_MRF89XARegisterSet
		_MRF89XASetRFMode
		_WriteFIFO
 This function is called by:
		_Comm_Transmit
 This function uses a non-reentrant model


 *************** function _WriteFIFO *****************
 Defined at:
		line 226 in file "../../LIBC/MRF89_Drv/MRF89XA.c"
 Parameters:    Size  Location     Type
  Data            1    wreg     unsigned char 
 Auto vars:     Size  Location     Type
  Data            1    2[COMMON] unsigned char 
 Return value:  Size  Location     Type
                  1    wreg      void 
 Registers used:
		wreg, status,2, status,0, pclath, cstack
 Tracked objects:
		On entry : 
		On exit  : 
		Unchanged: 
 Data sizes:     COMMON   BANK0   BANK1   BANK2
      Params:         0       0       0       0
      Locals:         1       0       0       0
      Temps:          0       0       0       0
      Totals:         1       0       0       0
Total ram usage:        1 bytes
 Hardware stack levels used:    1
 Hardware stack levels required when called:    1
 This function calls:
		_SPI_HF_Put
 This function is called by:
		_MRF89XASendFrame
 This function uses a non-reentrant model


 *************** function _CalcUbat *****************
 Defined at:
		line 169 in file "../main.c"
 Parameters:    Size  Location     Type
		None
 Auto vars:     Size  Location     Type
		None
 Return value:  Size  Location     Type
                  1    wreg      unsigned char 
 Registers used:
		wreg, status,2, status,0, pclath, cstack
 Tracked objects:
		On entry : 
		On exit  : 
		Unchanged: 
 Data sizes:     COMMON   BANK0   BANK1   BANK2
      Params:         0       0       0       0
      Locals:         0       0       0       0
      Temps:          0       0       0       0
      Totals:         0       0       0       0
Total ram usage:        0 bytes
 Hardware stack levels used:    1
 Hardware stack levels required when called:    1
 This function calls:
		___awdiv
 This function is called by:
		_Comm_Transmit
 This function uses a non-reentrant model


 *************** function ___awdiv *****************
 Defined at:
		line 6 in file "C:\Program Files (x86)\Microchip\xc8\v1.45\sources\common\awdiv.c"
 Parameters:    Size  Location     Type
  divisor         2    0[COMMON] int 
  dividend        2    2[COMMON] int 
 Auto vars:     Size  Location     Type
  quotient        2    6[COMMON] int 
  sign            1    5[COMMON] unsigned char 
  counter         1    4[COMMON] unsigned char 
 Return value:  Size  Location     Type
                  2    0[COMMON] int 
 Registers used:
		wreg, status,2, status,0
 Tracked objects:
		On entry : 
		On exit  : 
		Unchanged: 
 Data sizes:     COMMON   BANK0   BANK1   BANK2
      Params:         4       0       0       0
      Locals:         4       0       0       0
      Temps:          0       0       0       0
      Totals:         8       0       0       0
Total ram usage:        8 bytes
 Hardware stack levels used:    1
 This function calls:
		Nothing
 This function is called by:
		_CalcUbat
 This function uses a non-reentrant model


 *************** function _Comm_Init *****************
 Defined at:
		line 27 in file "../svc_comm.c"
 Parameters:    Size  Location     Type
		None
 Auto vars:     Size  Location     Type
		None
 Return value:  Size  Location     Type
                  1    wreg      void 
 Registers used:
		wreg, fsr0l, fsr0h, status,2, status,0, pclath, cstack
 Tracked objects:
		On entry : 
		On exit  : 
		Unchanged: 
 Data sizes:     COMMON   BANK0   BANK1   BANK2
      Params:         0       0       0       0
      Locals:         0       0       0       0
      Temps:          0       0       0       0
      Totals:         0       0       0       0
Total ram usage:        0 bytes
 Hardware stack levels used:    1
 Hardware stack levels required when called:    4
 This function calls:
		_MRF89XAInit
		_MRF89XARegisterSet
		_MRF89XASetRFMode
 This function is called by:
		_main
 This function uses a non-reentrant model


 *************** function _MRF89XAInit *****************
 Defined at:
		line 129 in file "../../LIBC/MRF89_Drv/MRF89XA.c"
 Parameters:    Size  Location     Type
		None
 Auto vars:     Size  Location     Type
  i               1    8[COMMON] unsigned char 
  input           1    7[COMMON] unsigned char 
  res             1    6[COMMON] unsigned char 
 Return value:  Size  Location     Type
                  1    wreg      unsigned char 
 Registers used:
		wreg, fsr0l, fsr0h, status,2, status,0, pclath, cstack
 Tracked objects:
		On entry : 
		On exit  : 
		Unchanged: 
 Data sizes:     COMMON   BANK0   BANK1   BANK2
      Params:         0       0       0       0
      Locals:         3       0       0       0
      Temps:          0       0       0       0
      Totals:         3       0       0       0
Total ram usage:        3 bytes
 Hardware stack levels used:    1
 Hardware stack levels required when called:    3
 This function calls:
		_MRF89XARegisterRead
		_MRF89XARegisterSet
		_MRF89XASetRFMode
 This function is called by:
		_Comm_Init
 This function uses a non-reentrant model


 *************** function _MRF89XASetRFMode *****************
 Defined at:
		line 241 in file "../../LIBC/MRF89_Drv/MRF89XA.c"
 Parameters:    Size  Location     Type
  mode            1    wreg     unsigned char 
 Auto vars:     Size  Location     Type
  mode            1    4[COMMON] unsigned char 
  mcparam0_rea    1    5[COMMON] unsigned char 
 Return value:  Size  Location     Type
                  1    wreg      void 
 Registers used:
		wreg, fsr0l, fsr0h, status,2, status,0, pclath, cstack
 Tracked objects:
		On entry : 
		On exit  : 
		Unchanged: 
 Data sizes:     COMMON   BANK0   BANK1   BANK2
      Params:         0       0       0       0
      Locals:         2       0       0       0
      Temps:          0       0       0       0
      Totals:         2       0       0       0
Total ram usage:        2 bytes
 Hardware stack levels used:    1
 Hardware stack levels required when called:    2
 This function calls:
		_MRF89XARegisterSet
 This function is called by:
		_MRF89XAInit
		_MRF89XASendFrame
		_Comm_Init
		_Comm_Transmit
 This function uses a non-reentrant model


 *************** function _MRF89XARegisterSet *****************
 Defined at:
		line 164 in file "../../LIBC/MRF89_Drv/MRF89XA.c"
 Parameters:    Size  Location     Type
  address         1    wreg     unsigned char 
  value           1    2[COMMON] unsigned char 
 Auto vars:     Size  Location     Type
  address         1    3[COMMON] unsigned char 
 Return value:  Size  Location     Type
                  1    wreg      void 
 Registers used:
		wreg, status,2, status,0, pclath, cstack
 Tracked objects:
		On entry : 
		On exit  : 
		Unchanged: 
 Data sizes:     COMMON   BANK0   BANK1   BANK2
      Params:         1       0       0       0
      Locals:         1       0       0       0
      Temps:          0       0       0       0
      Totals:         2       0       0       0
Total ram usage:        2 bytes
 Hardware stack levels used:    1
 Hardware stack levels required when called:    1
 This function calls:
		_SPI_HF_Put
 This function is called by:
		_MRF89XAInit
		_MRF89XASendFrame
		_MRF89XASetRFMode
		_Comm_Init
		_Comm_Transmit
 This function uses a non-reentrant model


 *************** function _MRF89XARegisterRead *****************
 Defined at:
		line 172 in file "../../LIBC/MRF89_Drv/MRF89XA.c"
 Parameters:    Size  Location     Type
  address         1    wreg     unsigned char 
 Auto vars:     Size  Location     Type
  address         1    3[COMMON] unsigned char 
  value           1    2[COMMON] unsigned char 
 Return value:  Size  Location     Type
                  1    wreg      unsigned char 
 Registers used:
		wreg, status,2, status,0, pclath, cstack
 Tracked objects:
		On entry : 
		On exit  : 
		Unchanged: 
 Data sizes:     COMMON   BANK0   BANK1   BANK2
      Params:         0       0       0       0
      Locals:         2       0       0       0
      Temps:          0       0       0       0
      Totals:         2       0       0       0
Total ram usage:        2 bytes
 Hardware stack levels used:    1
 Hardware stack levels required when called:    1
 This function calls:
		_SPI_HF_Get
		_SPI_HF_Put
 This function is called by:
		_MRF89XAInit
		_Comm_Transmit
 This function uses a non-reentrant model


 *************** function _SPI_HF_Put *****************
 Defined at:
		line 29 in file "../drv_spi.c"
 Parameters:    Size  Location     Type
  v               1    wreg     unsigned char 
 Auto vars:     Size  Location     Type
  v               1    0[COMMON] unsigned char 
  i               1    1[COMMON] volatile unsigned char 
 Return value:  Size  Location     Type
                  1    wreg      void 
 Registers used:
		wreg
 Tracked objects:
		On entry : 
		On exit  : 
		Unchanged: 
 Data sizes:     COMMON   BANK0   BANK1   BANK2
      Params:         0       0       0       0
      Locals:         2       0       0       0
      Temps:          0       0       0       0
      Totals:         2       0       0       0
Total ram usage:        2 bytes
 Hardware stack levels used:    1
 This function calls:
		Nothing
 This function is called by:
		_MRF89XARegisterSet
		_MRF89XARegisterRead
		_WriteFIFO
 This function uses a non-reentrant model


 *************** function _SPI_HF_Get *****************
 Defined at:
		line 61 in file "../drv_spi.c"
 Parameters:    Size  Location     Type
		None
 Auto vars:     Size  Location     Type
  spidata         1    0[COMMON] volatile unsigned char 
 Return value:  Size  Location     Type
                  1    wreg      unsigned char 
 Registers used:
		wreg, status,2
 Tracked objects:
		On entry : 
		On exit  : 
		Unchanged: 
 Data sizes:     COMMON   BANK0   BANK1   BANK2
      Params:         0       0       0       0
      Locals:         1       0       0       0
      Temps:          0       0       0       0
      Totals:         1       0       0       0
Total ram usage:        1 bytes
 Hardware stack levels used:    1
 This function calls:
		Nothing
 This function is called by:
		_MRF89XARegisterRead
 This function uses a non-reentrant model


 *************** function _Clock_Init *****************
 Defined at:
		line 70 in file "../main.c"
 Parameters:    Size  Location     Type
		None
 Auto vars:     Size  Location     Type
		None
 Return value:  Size  Location     Type
                  1    wreg      void 
 Registers used:
		wreg, status,2
 Tracked objects:
		On entry : 
		On exit  : 
		Unchanged: 
 Data sizes:     COMMON   BANK0   BANK1   BANK2
      Params:         0       0       0       0
      Locals:         0       0       0       0
      Temps:          0       0       0       0
      Totals:         0       0       0       0
Total ram usage:        0 bytes
 Hardware stack levels used:    1
 This function calls:
		Nothing
 This function is called by:
		_main
 This function uses a non-reentrant model



MODULE INFORMATION

Module		Function		Class		Link	Load	Size
../main.c
		_CalcUbat      		CODE           	0544	0000	10
		_main          		CODE           	054D	0000	11
		_ConvBat       		CODE           	05CA	0000	33
		_MainLoop      		CODE           	075B	0000	164
		_Clock_Init    		CODE           	05AD	0000	30
		_Ports_Init    		CODE           	0637	0000	47

../main.c estimated size: 295

../../LIBC/MRF89_Drv/MRF89XA.c
		_MRF89XAInit   		CODE           	0697	0000	53
		_MRF89XASetRFMode		CODE           	0589	0000	18
		_MRF89XASendFrame		CODE           	060A	0000	46
		_WriteFIFO     		CODE           	0534	0000	9
		_MRF89XARegisterRead		CODE           	057C	0000	14
		_MRF89XARegisterSet		CODE           	0557	0000	12

../../LIBC/MRF89_Drv/MRF89XA.c estimated size: 152

../svc_comm.c
		_Comm_Transmit 		CODE           	070B	0000	81
		_Comm_Init     		CODE           	0665	0000	51

../svc_comm.c estimated size: 132

../drv_spi.c
		_SPI_HF_Get    		CODE           	0562	0000	14
		_SPI_HF_Put    		CODE           	056F	0000	14
		_SPI_HF_Init   		CODE           	059A	0000	20
		_SPI_HF_Deinit 		CODE           	053C	0000	9

../drv_spi.c estimated size: 57

shared
		_InitConfigRegs		STRCODE        	05EA	0000	33
		__initialization		CODE           	07FE	0000	1
		_ROM_NWID      		STRCODE        	052F	0000	6

shared estimated size: 40

C:\Program Files (x86)\Microchip\xc8\v1.45\sources\common\awdiv.c
		___awdiv       		CODE           	06CB	0000	65

C:\Program Files (x86)\Microchip\xc8\v1.45\sources\common\awdiv.c estimated size: 65

